# SymbolsHelper-Confirmed: 5.70.0 amd64
libKF5Kirigami2.so.5 libkf5kirigami2-5 #MINVER#
* Build-Depends-Package: kirigami2-dev
 _ZN8Kirigami13PlatformTheme10setInheritEb@Base 5.69.0
 _ZN8Kirigami13PlatformTheme10setPaletteERK8QPalette@Base 5.69.0
 _ZN8Kirigami13PlatformTheme11qt_metacallEN11QMetaObject4CallEiPPv@Base 5.69.0
 _ZN8Kirigami13PlatformTheme11qt_metacastEPKc@Base 5.69.0
 _ZN8Kirigami13PlatformTheme11setColorSetENS0_8ColorSetE@Base 5.69.0
 _ZN8Kirigami13PlatformTheme12setLinkColorERK6QColor@Base 5.69.0
 _ZN8Kirigami13PlatformTheme12setSmallFontERK5QFont@Base 5.70.0
 _ZN8Kirigami13PlatformTheme12setTextColorERK6QColor@Base 5.69.0
 _ZN8Kirigami13PlatformTheme13colorsChangedEv@Base 5.69.0
 _ZN8Kirigami13PlatformTheme13iconFromThemeERK7QStringRK6QColor@Base 5.69.0
 _ZN8Kirigami13PlatformTheme13setColorGroupENS0_10ColorGroupE@Base 5.69.0
 _ZN8Kirigami13PlatformTheme13setFocusColorERK6QColor@Base 5.69.0
 _ZN8Kirigami13PlatformTheme13setHoverColorERK6QColor@Base 5.69.0
 _ZN8Kirigami13PlatformTheme14inheritChangedEb@Base 5.69.0
 _ZN8Kirigami13PlatformTheme14paletteChangedERK8QPalette@Base 5.69.0
 _ZN8Kirigami13PlatformTheme14setDefaultFontERK5QFont@Base 5.69.0
 _ZN8Kirigami13PlatformTheme15colorSetChangedENS0_8ColorSetE@Base 5.69.0
 _ZN8Kirigami13PlatformTheme16smallFontChangedERK5QFont@Base 5.70.0
 _ZN8Kirigami13PlatformTheme16staticMetaObjectE@Base 5.69.0
 _ZN8Kirigami13PlatformTheme17colorGroupChangedENS0_10ColorGroupE@Base 5.69.0
 _ZN8Kirigami13PlatformTheme17setHighlightColorERK6QColor@Base 5.69.0
 _ZN8Kirigami13PlatformTheme18defaultFontChangedERK5QFont@Base 5.69.0
 _ZN8Kirigami13PlatformTheme18setActiveTextColorERK6QColor@Base 5.69.0
 _ZN8Kirigami13PlatformTheme18setBackgroundColorERK6QColor@Base 5.69.0
 _ZN8Kirigami13PlatformTheme18setCustomLinkColorERK6QColor@Base 5.69.0
 _ZN8Kirigami13PlatformTheme18setCustomTextColorERK6QColor@Base 5.69.0
 _ZN8Kirigami13PlatformTheme19setCustomFocusColorERK6QColor@Base 5.69.0
 _ZN8Kirigami13PlatformTheme19setCustomHoverColorERK6QColor@Base 5.69.0
 _ZN8Kirigami13PlatformTheme19setNeutralTextColorERK6QColor@Base 5.69.0
 _ZN8Kirigami13PlatformTheme19setVisitedLinkColorERK6QColor@Base 5.69.0
 _ZN8Kirigami13PlatformTheme20setDisabledTextColorERK6QColor@Base 5.69.0
 _ZN8Kirigami13PlatformTheme20setNegativeTextColorERK6QColor@Base 5.69.0
 _ZN8Kirigami13PlatformTheme20setPositiveTextColorERK6QColor@Base 5.69.0
 _ZN8Kirigami13PlatformTheme21qmlAttachedPropertiesEP7QObject@Base 5.69.0
 _ZN8Kirigami13PlatformTheme22setLinkBackgroundColorERK6QColor@Base 5.69.0
 _ZN8Kirigami13PlatformTheme23setCustomHighlightColorERK6QColor@Base 5.69.0
 _ZN8Kirigami13PlatformTheme23setHighlightedTextColorERK6QColor@Base 5.69.0
 _ZN8Kirigami13PlatformTheme23setSupportsIconColoringEb@Base 5.69.0
 _ZN8Kirigami13PlatformTheme24setActiveBackgroundColorERK6QColor@Base 5.69.0
 _ZN8Kirigami13PlatformTheme24setCustomActiveTextColorERK6QColor@Base 5.69.0
 _ZN8Kirigami13PlatformTheme24setCustomBackgroundColorERK6QColor@Base 5.69.0
 _ZN8Kirigami13PlatformTheme25setCustomNeutralTextColorERK6QColor@Base 5.69.0
 _ZN8Kirigami13PlatformTheme25setCustomVisitedLinkColorERK6QColor@Base 5.69.0
 _ZN8Kirigami13PlatformTheme25setNeutralBackgroundColorERK6QColor@Base 5.69.0
 _ZN8Kirigami13PlatformTheme26setCustomDisabledTextColorERK6QColor@Base 5.69.0
 _ZN8Kirigami13PlatformTheme26setCustomNegativeTextColorERK6QColor@Base 5.69.0
 _ZN8Kirigami13PlatformTheme26setCustomPositiveTextColorERK6QColor@Base 5.69.0
 _ZN8Kirigami13PlatformTheme26setNegativeBackgroundColorERK6QColor@Base 5.69.0
 _ZN8Kirigami13PlatformTheme26setPositiveBackgroundColorERK6QColor@Base 5.69.0
 _ZN8Kirigami13PlatformTheme27setAlternateBackgroundColorERK6QColor@Base 5.69.0
 _ZN8Kirigami13PlatformTheme28setCustomLinkBackgroundColorERK6QColor@Base 5.69.0
 _ZN8Kirigami13PlatformTheme29setCustomHighlightedTextColorERK6QColor@Base 5.69.0
 _ZN8Kirigami13PlatformTheme29setVisitedLinkBackgroundColorERK6QColor@Base 5.69.0
 _ZN8Kirigami13PlatformTheme30setCustomActiveBackgroundColorERK6QColor@Base 5.69.0
 _ZN8Kirigami13PlatformTheme31setCustomNeutralBackgroundColorERK6QColor@Base 5.69.0
 _ZN8Kirigami13PlatformTheme32setCustomNegativeBackgroundColorERK6QColor@Base 5.69.0
 _ZN8Kirigami13PlatformTheme32setCustomPositiveBackgroundColorERK6QColor@Base 5.69.0
 _ZN8Kirigami13PlatformTheme33setCustomAlternateBackgroundColorERK6QColor@Base 5.69.0
 _ZN8Kirigami13PlatformTheme35setCustomVisitedLinkBackgroundColorERK6QColor@Base 5.69.0
 _ZN8Kirigami13PlatformThemeC1EP7QObject@Base 5.69.0
 _ZN8Kirigami13PlatformThemeC2EP7QObject@Base 5.69.0
 _ZN8Kirigami13PlatformThemeD0Ev@Base 5.69.0
 _ZN8Kirigami13PlatformThemeD1Ev@Base 5.69.0
 _ZN8Kirigami13PlatformThemeD2Ev@Base 5.69.0
 _ZN8Kirigami17TabletModeWatcher11qt_metacallEN11QMetaObject4CallEiPPv@Base 5.69.0
 _ZN8Kirigami17TabletModeWatcher11qt_metacastEPKc@Base 5.69.0
 _ZN8Kirigami17TabletModeWatcher16staticMetaObjectE@Base 5.69.0
 _ZN8Kirigami17TabletModeWatcher17tabletModeChangedEb@Base 5.69.0
 _ZN8Kirigami17TabletModeWatcher26tabletModeAvailableChangedEb@Base 5.69.0
 _ZN8Kirigami17TabletModeWatcher4selfEv@Base 5.69.0
 _ZN8Kirigami17TabletModeWatcherC1EP7QObject@Base 5.69.0
 _ZN8Kirigami17TabletModeWatcherC2EP7QObject@Base 5.69.0
 _ZN8Kirigami17TabletModeWatcherD0Ev@Base 5.69.0
 _ZN8Kirigami17TabletModeWatcherD1Ev@Base 5.69.0
 _ZN8Kirigami17TabletModeWatcherD2Ev@Base 5.69.0
 _ZN8Kirigami21KirigamiPluginFactory11qt_metacallEN11QMetaObject4CallEiPPv@Base 5.69.0
 _ZN8Kirigami21KirigamiPluginFactory11qt_metacastEPKc@Base 5.69.0
 _ZN8Kirigami21KirigamiPluginFactory16staticMetaObjectE@Base 5.69.0
 _ZN8Kirigami21KirigamiPluginFactoryC1EP7QObject@Base 5.69.0
 _ZN8Kirigami21KirigamiPluginFactoryC2EP7QObject@Base 5.69.0
 _ZN8Kirigami21KirigamiPluginFactoryD0Ev@Base 5.69.0
 _ZN8Kirigami21KirigamiPluginFactoryD1Ev@Base 5.69.0
 _ZN8Kirigami21KirigamiPluginFactoryD2Ev@Base 5.69.0
 _ZNK8Kirigami13PlatformTheme10colorGroupEv@Base 5.69.0
 _ZNK8Kirigami13PlatformTheme10focusColorEv@Base 5.69.0
 _ZNK8Kirigami13PlatformTheme10hoverColorEv@Base 5.69.0
 _ZNK8Kirigami13PlatformTheme10metaObjectEv@Base 5.69.0
 _ZNK8Kirigami13PlatformTheme11defaultFontEv@Base 5.69.0
 _ZNK8Kirigami13PlatformTheme14highlightColorEv@Base 5.69.0
 _ZNK8Kirigami13PlatformTheme15activeTextColorEv@Base 5.69.0
 _ZNK8Kirigami13PlatformTheme15backgroundColorEv@Base 5.69.0
 _ZNK8Kirigami13PlatformTheme16neutralTextColorEv@Base 5.69.0
 _ZNK8Kirigami13PlatformTheme16visitedLinkColorEv@Base 5.69.0
 _ZNK8Kirigami13PlatformTheme17disabledTextColorEv@Base 5.69.0
 _ZNK8Kirigami13PlatformTheme17negativeTextColorEv@Base 5.69.0
 _ZNK8Kirigami13PlatformTheme17positiveTextColorEv@Base 5.69.0
 _ZNK8Kirigami13PlatformTheme19linkBackgroundColorEv@Base 5.69.0
 _ZNK8Kirigami13PlatformTheme20highlightedTextColorEv@Base 5.69.0
 _ZNK8Kirigami13PlatformTheme20supportsIconColoringEv@Base 5.69.0
 _ZNK8Kirigami13PlatformTheme21activeBackgroundColorEv@Base 5.69.0
 _ZNK8Kirigami13PlatformTheme22neutralBackgroundColorEv@Base 5.69.0
 _ZNK8Kirigami13PlatformTheme23negativeBackgroundColorEv@Base 5.69.0
 _ZNK8Kirigami13PlatformTheme23positiveBackgroundColorEv@Base 5.69.0
 _ZNK8Kirigami13PlatformTheme24alternateBackgroundColorEv@Base 5.69.0
 _ZNK8Kirigami13PlatformTheme26visitedLinkBackgroundColorEv@Base 5.69.0
 _ZNK8Kirigami13PlatformTheme7inheritEv@Base 5.69.0
 _ZNK8Kirigami13PlatformTheme7paletteEv@Base 5.69.0
 _ZNK8Kirigami13PlatformTheme8colorSetEv@Base 5.69.0
 _ZNK8Kirigami13PlatformTheme9linkColorEv@Base 5.69.0
 _ZNK8Kirigami13PlatformTheme9smallFontEv@Base 5.70.0
 _ZNK8Kirigami13PlatformTheme9textColorEv@Base 5.69.0
 _ZNK8Kirigami17TabletModeWatcher10metaObjectEv@Base 5.69.0
 _ZNK8Kirigami17TabletModeWatcher12isTabletModeEv@Base 5.69.0
 _ZNK8Kirigami17TabletModeWatcher21isTabletModeAvailableEv@Base 5.69.0
 _ZNK8Kirigami21KirigamiPluginFactory10metaObjectEv@Base 5.69.0
 _ZTIN8Kirigami13PlatformThemeE@Base 5.69.0
 _ZTIN8Kirigami17TabletModeWatcherE@Base 5.69.0
 _ZTIN8Kirigami21KirigamiPluginFactoryE@Base 5.69.0
 _ZTSN8Kirigami13PlatformThemeE@Base 5.69.0
 _ZTSN8Kirigami17TabletModeWatcherE@Base 5.69.0
 _ZTSN8Kirigami21KirigamiPluginFactoryE@Base 5.69.0
 _ZTVN8Kirigami13PlatformThemeE@Base 5.69.0
 _ZTVN8Kirigami17TabletModeWatcherE@Base 5.69.0
 _ZTVN8Kirigami21KirigamiPluginFactoryE@Base 5.69.0
